; Function Attrs: mustprogress nofree norecurse nosync nounwind willreturn memory(argmem: readwrite) uwtable
define internal noundef i32 @tt_cmap12_init(ptr nocapture noundef writeonly %0, ptr noundef %1) #5 {
  %3 = getelementptr inbounds i8, ptr %0, i64 24
  store ptr %1, ptr %3, align 8
  %4 = getelementptr inbounds i8, ptr %1, i64 12
  %5 = load i8, ptr %4, align 1
  %6 = zext i8 %5 to i64
  %7 = shl nuw nsw i64 %6, 24
  %8 = getelementptr inbounds i8, ptr %1, i64 13
  %9 = load i8, ptr %8, align 1
  %10 = zext i8 %9 to i64
  %11 = shl nuw nsw i64 %10, 16
  %12 = or disjoint i64 %11, %7
  %13 = getelementptr inbounds i8, ptr %1, i64 14
  %14 = load i8, ptr %13, align 1
  %15 = zext i8 %14 to i64
  %16 = shl nuw nsw i64 %15, 8
  %17 = or disjoint i64 %12, %16
  %18 = getelementptr inbounds i8, ptr %1, i64 15
  %19 = load i8, ptr %18, align 1
  %20 = zext i8 %19 to i64
  %21 = or disjoint i64 %17, %20
  %22 = getelementptr inbounds i8, ptr %0, i64 72
  store i64 %21, ptr %22, align 8
  %23 = getelementptr inbounds i8, ptr %0, i64 40
  store i8 0, ptr %23, align 8
  ret i32 0
}